target datalayout = "e-m:e-p270:32:32-p271:32:32-p272:64:64-i64:64-i128:128-f80:128-n8:16:32:64-S128"
target triple = "x86_64-pc-linux-gnu"

%"class.llvm::SmallVectorBase" = type { ptr, i32, i32 }
%"class.llvm::FoldingSetBase::Node" = type { ptr }
%"class.clang::ento::BugReporterVisitor" = type { ptr, %"class.llvm::FoldingSetBase::Node" }
%"class.llvm::SmallPtrSetImplBase.base" = type <{ ptr, ptr, i32, i32, i32 }>
%"class.llvm::RefCountedBase.1110" = type { i32 }
%"class.llvm::IntrusiveRefCntPtr.1136" = type { ptr }
%"class.llvm::SmallPtrSetImplBase" = type <{ ptr, ptr, i32, i32, i32, [4 x i8] }>
%"class.(anonymous namespace)::TrackControlDependencyCondBRVisitor" = type { %"class.clang::ento::bugreporter::TrackingBugReporterVisitor", ptr, %"class.clang::ControlDependencyCalculator", %"class.llvm::SmallSet.1528" }
%"class.clang::ento::bugreporter::TrackingBugReporterVisitor" = type { %"class.clang::ento::BugReporterVisitor", %"class.llvm::IntrusiveRefCntPtr.1136" }
%"class.clang::ControlDependencyCalculator" = type { %"class.clang::ManagedAnalysis", %"class.clang::CFGDominatorTreeImpl", %"class.llvm::IDFCalculatorBase", %"class.llvm::DenseMap.1525" }
%"class.clang::ManagedAnalysis" = type { ptr }
%"class.clang::CFGDominatorTreeImpl" = type { %"class.clang::ManagedAnalysis", ptr, %"class.llvm::DominatorTreeBase" }
%"class.llvm::DominatorTreeBase" = type <{ %"class.llvm::SmallVector.1512", %"class.llvm::SmallVector.1517", %"class.llvm::DenseMap.1522", ptr, ptr, i8, [3 x i8], i32, i32, [4 x i8] }>
%"class.llvm::SmallVector.1512" = type { %"class.llvm::SmallVectorImpl.1513", %"struct.llvm::SmallVectorStorage.1516" }
%"class.llvm::SmallVectorImpl.1513" = type { %"class.llvm::SmallVectorTemplateBase.1514" }
%"class.llvm::SmallVectorTemplateBase.1514" = type { %"class.llvm::SmallVectorTemplateCommon.1515" }
%"class.llvm::SmallVectorTemplateCommon.1515" = type { %"class.llvm::SmallVectorBase" }
%"struct.llvm::SmallVectorStorage.1516" = type { [32 x i8] }
%"class.llvm::SmallVector.1517" = type { %"class.llvm::SmallVectorImpl.1518", %"struct.llvm::SmallVectorStorage.1521" }
%"class.llvm::SmallVectorImpl.1518" = type { %"class.llvm::SmallVectorTemplateBase.1519" }
%"class.llvm::SmallVectorTemplateBase.1519" = type { %"class.llvm::SmallVectorTemplateCommon.1520" }
%"class.llvm::SmallVectorTemplateCommon.1520" = type { %"class.llvm::SmallVectorBase" }
%"struct.llvm::SmallVectorStorage.1521" = type { [48 x i8] }
%"class.llvm::DenseMap.1522" = type <{ ptr, i32, i32, i32, [4 x i8] }>
%"class.llvm::IDFCalculatorBase" = type { ptr, i8, i8, ptr, ptr }
%"class.llvm::DenseMap.1525" = type <{ ptr, i32, i32, i32, [4 x i8] }>
%"class.llvm::SmallSet.1528" = type { %"class.llvm::SmallPtrSet.1529" }
%"class.llvm::SmallPtrSet.1529" = type { %"class.llvm::SmallPtrSetImpl.base.1531", [32 x ptr] }
%"class.llvm::SmallPtrSetImpl.base.1531" = type { %"class.llvm::SmallPtrSetImplBase.base" }

; Function Attrs: mustprogress nounwind uwtable
define linkonce_odr hidden void @_ZNK4llvm14RefCountedBaseIN5clang4ento11bugreporter7TrackerEE7ReleaseEv(ptr noundef nonnull align 4 dereferenceable(4) %0) #0 comdat align 2 {
  %2 = alloca ptr, align 8
  store ptr %0, ptr %2, align 8
  %3 = load ptr, ptr %2, align 8
  %4 = getelementptr inbounds nuw %"class.llvm::RefCountedBase.1110", ptr %3, i32 0, i32 0
  %5 = load i32, ptr %4, align 4
  %6 = add i32 %5, -1
  store i32 %6, ptr %4, align 4
  %7 = icmp eq i32 %6, 0
  br i1 %7, label %8, label %16

8:                                                ; preds = %1
  %9 = getelementptr inbounds i8, ptr %3, i64 -8
  %10 = icmp eq ptr %9, null
  br i1 %10, label %15, label %11

11:                                               ; preds = %8
  %12 = load ptr, ptr %9, align 8
  %13 = getelementptr inbounds ptr, ptr %12, i64 1
  %14 = load ptr, ptr %13, align 8
  call void %14(ptr noundef nonnull align 8 dereferenceable(72) %9) #15
  br label %15

15:                                               ; preds = %11, %8
  br label %16

16:                                               ; preds = %15, %1
  ret void
}

; Function Attrs: mustprogress nounwind uwtable
define linkonce_odr hidden noundef zeroext i1 @_ZNK4llvm19SmallPtrSetImplBase7isSmallEv(ptr noundef nonnull align 8 dereferenceable(28) %0) #0 comdat align 2 {
  %2 = alloca ptr, align 8
  store ptr %0, ptr %2, align 8
  %3 = load ptr, ptr %2, align 8
  %4 = getelementptr inbounds nuw %"class.llvm::SmallPtrSetImplBase", ptr %3, i32 0, i32 1
  %5 = load ptr, ptr %4, align 8
  %6 = getelementptr inbounds nuw %"class.llvm::SmallPtrSetImplBase", ptr %3, i32 0, i32 0
  %7 = load ptr, ptr %6, align 8
  %8 = icmp eq ptr %5, %7
  ret i1 %8
}

; Function Attrs: mustprogress nounwind uwtable
define linkonce_odr hidden void @_ZN4llvm22IntrusiveRefCntPtrInfoIN5clang4ento11bugreporter7TrackerEE7releaseEPS4_(ptr noundef %0) #0 comdat align 2 {
  %2 = alloca ptr, align 8
  store ptr %0, ptr %2, align 8
  %3 = load ptr, ptr %2, align 8
  %4 = getelementptr inbounds i8, ptr %3, i64 8
  call void @_ZNK4llvm14RefCountedBaseIN5clang4ento11bugreporter7TrackerEE7ReleaseEv(ptr noundef nonnull align 4 dereferenceable(4) %4)
  ret void
}

; Function Attrs: mustprogress nounwind uwtable
define linkonce_odr hidden void @_ZN4llvm19SmallPtrSetImplBaseD2Ev(ptr noundef nonnull align 8 dereferenceable(28) %0) unnamed_addr #0 comdat align 2 {
  %2 = alloca ptr, align 8
  store ptr %0, ptr %2, align 8
  %3 = load ptr, ptr %2, align 8
  %4 = call noundef zeroext i1 @_ZNK4llvm19SmallPtrSetImplBase7isSmallEv(ptr noundef nonnull align 8 dereferenceable(28) %3)
  br i1 %4, label %8, label %5

5:                                                ; preds = %1
  %6 = getelementptr inbounds nuw %"class.llvm::SmallPtrSetImplBase", ptr %3, i32 0, i32 1
  %7 = load ptr, ptr %6, align 8
  call void @free(ptr noundef %7) #15
  br label %8

8:                                                ; preds = %5, %1
  ret void
}

; Function Attrs: mustprogress nounwind uwtable
define linkonce_odr hidden void @_ZN4llvm18IntrusiveRefCntPtrIN5clang4ento11bugreporter7TrackerEE7releaseEv(ptr noundef nonnull align 8 dereferenceable(8) %0) #0 comdat align 2 {
  %2 = alloca ptr, align 8
  store ptr %0, ptr %2, align 8
  %3 = load ptr, ptr %2, align 8
  %4 = getelementptr inbounds nuw %"class.llvm::IntrusiveRefCntPtr.1136", ptr %3, i32 0, i32 0
  %5 = load ptr, ptr %4, align 8
  %6 = icmp ne ptr %5, null
  br i1 %6, label %7, label %10

7:                                                ; preds = %1
  %8 = getelementptr inbounds nuw %"class.llvm::IntrusiveRefCntPtr.1136", ptr %3, i32 0, i32 0
  %9 = load ptr, ptr %8, align 8
  call void @_ZN4llvm22IntrusiveRefCntPtrInfoIN5clang4ento11bugreporter7TrackerEE7releaseEPS4_(ptr noundef %9)
  br label %10

10:                                               ; preds = %7, %1
  ret void
}

; Function Attrs: mustprogress nounwind uwtable
define linkonce_odr hidden void @_ZN4llvm15SmallPtrSetImplIPKN5clang8CFGBlockEED2Ev(ptr noundef nonnull align 8 dereferenceable(28) %0) unnamed_addr #0 comdat align 2 {
  %2 = alloca ptr, align 8
  store ptr %0, ptr %2, align 8
  %3 = load ptr, ptr %2, align 8
  call void @_ZN4llvm19SmallPtrSetImplBaseD2Ev(ptr noundef nonnull align 8 dereferenceable(28) %3) #15
  ret void
}

; Function Attrs: mustprogress nounwind uwtable
define linkonce_odr hidden void @_ZN4llvm18IntrusiveRefCntPtrIN5clang4ento11bugreporter7TrackerEED2Ev(ptr noundef nonnull align 8 dereferenceable(8) %0) unnamed_addr #0 comdat align 2 {
  %2 = alloca ptr, align 8
  store ptr %0, ptr %2, align 8
  %3 = load ptr, ptr %2, align 8
  call void @_ZN4llvm18IntrusiveRefCntPtrIN5clang4ento11bugreporter7TrackerEE7releaseEv(ptr noundef nonnull align 8 dereferenceable(8) %3)
  ret void
}

; Function Attrs: mustprogress nounwind uwtable
define linkonce_odr hidden void @_ZN4llvm11SmallPtrSetIPKN5clang8CFGBlockELj32EED2Ev(ptr noundef nonnull align 8 dereferenceable(288) %0) unnamed_addr #0 comdat align 2 {
  %2 = alloca ptr, align 8
  store ptr %0, ptr %2, align 8
  %3 = load ptr, ptr %2, align 8
  call void @_ZN4llvm15SmallPtrSetImplIPKN5clang8CFGBlockEED2Ev(ptr noundef nonnull align 8 dereferenceable(28) %3) #15
  ret void
}

; Function Attrs: mustprogress nounwind uwtable
define linkonce_odr hidden void @_ZN5clang4ento11bugreporter26TrackingBugReporterVisitorD2Ev(ptr noundef nonnull align 8 dereferenceable(24) %0) unnamed_addr #0 comdat align 2 {
  %2 = alloca ptr, align 8
  store ptr %0, ptr %2, align 8
  %3 = load ptr, ptr %2, align 8
  store ptr getelementptr inbounds inrange(-16, 48) ({ [8 x ptr] }, ptr @_ZTVN5clang4ento11bugreporter26TrackingBugReporterVisitorE, i32 0, i32 0, i32 2), ptr %3, align 8
  %4 = getelementptr inbounds nuw %"class.clang::ento::bugreporter::TrackingBugReporterVisitor", ptr %3, i32 0, i32 1
  call void @_ZN4llvm18IntrusiveRefCntPtrIN5clang4ento11bugreporter7TrackerEED2Ev(ptr noundef nonnull align 8 dereferenceable(8) %4) #15
  call void @_ZN5clang4ento18BugReporterVisitorD2Ev(ptr noundef nonnull align 8 dereferenceable(16) %3) #15
  ret void
}

; Function Attrs: mustprogress nounwind uwtable
define linkonce_odr hidden void @_ZN4llvm8SmallSetIPKN5clang8CFGBlockELj32ESt4lessIS4_EED2Ev(ptr noundef nonnull align 8 dereferenceable(288) %0) unnamed_addr #0 comdat align 2 {
  %2 = alloca ptr, align 8
  store ptr %0, ptr %2, align 8
  %3 = load ptr, ptr %2, align 8
  call void @_ZN4llvm11SmallPtrSetIPKN5clang8CFGBlockELj32EED2Ev(ptr noundef nonnull align 8 dereferenceable(288) %3) #15
  ret void
}

; Function Attrs: mustprogress nounwind uwtable
define internal void @_ZN12_GLOBAL__N_135TrackControlDependencyCondBRVisitorD2Ev(ptr noundef nonnull align 8 dereferenceable(568) %0) unnamed_addr #0 align 2 {
  %2 = alloca ptr, align 8
  store ptr %0, ptr %2, align 8
  %3 = load ptr, ptr %2, align 8
  %4 = getelementptr inbounds nuw %"class.(anonymous namespace)::TrackControlDependencyCondBRVisitor", ptr %3, i32 0, i32 3
  call void @_ZN4llvm8SmallSetIPKN5clang8CFGBlockELj32ESt4lessIS4_EED2Ev(ptr noundef nonnull align 8 dereferenceable(288) %4) #15
  %5 = getelementptr inbounds nuw %"class.(anonymous namespace)::TrackControlDependencyCondBRVisitor", ptr %3, i32 0, i32 2
  call void @_ZN5clang27ControlDependencyCalculatorD2Ev(ptr noundef nonnull align 8 dereferenceable(248) %5) #15
  call void @_ZN5clang4ento11bugreporter26TrackingBugReporterVisitorD2Ev(ptr noundef nonnull align 8 dereferenceable(24) %3) #15
  ret void
}

; Function Attrs: mustprogress nounwind uwtable
define internal void @_ZN12_GLOBAL__N_135TrackControlDependencyCondBRVisitorD0Ev(ptr noundef nonnull align 8 dereferenceable(568) %0) unnamed_addr #0 align 2 {
  %2 = alloca ptr, align 8
  store ptr %0, ptr %2, align 8
  %3 = load ptr, ptr %2, align 8
  call void @_ZN12_GLOBAL__N_135TrackControlDependencyCondBRVisitorD2Ev(ptr noundef nonnull align 8 dereferenceable(568) %3) #15
  call void @_ZdlPvm(ptr noundef %3, i64 noundef 568) #17
  ret void
}